target datalayout = "e-m:e-p270:32:32-p271:32:32-p272:64:64-i64:64-i128:128-f80:128-n8:16:32:64-S128"
target triple = "x86_64-pc-linux-gnu"

%struct.TypeCacheEntry = type { i32, i32, i16, i8, i8, i8, i8, i32, i32, i32, i32, i32, i32, i32, i32, i32, i32, i32, i32, i32, i32, %struct.FmgrInfo, %struct.FmgrInfo, %struct.FmgrInfo, %struct.FmgrInfo, ptr, i64, ptr, i32, i32, %struct.FmgrInfo, %struct.FmgrInfo, %struct.FmgrInfo, ptr, i32, i32, ptr, i32, ptr, ptr }
%struct.FmgrInfo = type { ptr, i32, i16, i8, i8, i8, ptr, ptr, ptr }
%struct.RecordCacheArrayEntry = type { i64, ptr }
%struct.Session = type { ptr, ptr, ptr, ptr, ptr }
%struct.SharedTypmodTableEntry = type { i32, i64 }

@CacheMemoryContext = external global ptr, align 8
@.str.3 = private unnamed_addr constant [11 x i8] c"typcache.c\00", align 1
@.str.6 = private unnamed_addr constant [25 x i8] c"type %s is not composite\00", align 1
@RecordCacheArray = internal global ptr null, align 8
@tupledesc_id_counter = internal global i64 1, align 8
@RecordCacheArrayLen = internal global i32 0, align 4
@CurrentSession = external global ptr, align 8
@__func__.lookup_rowtype_tupdesc_internal = private unnamed_addr constant [32 x i8] c"lookup_rowtype_tupdesc_internal\00", align 1
@.str.20 = private unnamed_addr constant [36 x i8] c"record type has not been registered\00", align 1

; Function Attrs: inlinehint nounwind uwtable
define internal i32 @pg_leftmost_one_pos32(i32 noundef %0) #3 {
  %2 = alloca i32, align 4
  store i32 %0, ptr %2, align 4
  %3 = load i32, ptr %2, align 4
  %4 = call i32 @llvm.ctlz.i32(i32 %3, i1 true)
  %5 = sub i32 31, %4
  ret i32 %5
}

; Function Attrs: inlinehint nounwind uwtable
define internal i32 @pg_nextpower2_32(i32 noundef %0) #3 {
  %2 = alloca i32, align 4
  %3 = alloca i32, align 4
  store i32 %0, ptr %3, align 4
  %4 = load i32, ptr %3, align 4
  %5 = load i32, ptr %3, align 4
  %6 = sub i32 %5, 1
  %7 = and i32 %4, %6
  %8 = icmp eq i32 %7, 0
  br i1 %8, label %9, label %11

9:                                                ; preds = %1
  %10 = load i32, ptr %3, align 4
  store i32 %10, ptr %2, align 4
  br label %16

11:                                               ; preds = %1
  %12 = load i32, ptr %3, align 4
  %13 = call i32 @pg_leftmost_one_pos32(i32 noundef %12)
  %14 = add i32 %13, 1
  %15 = shl i32 1, %14
  store i32 %15, ptr %2, align 4
  br label %16

16:                                               ; preds = %11, %9
  %17 = load i32, ptr %2, align 4
  ret i32 %17
}

; Function Attrs: nounwind uwtable
define internal void @ensure_record_cache_typmod_slot_exists(i32 noundef %0) #0 {
  %2 = alloca i32, align 4
  %3 = alloca i32, align 4
  store i32 %0, ptr %2, align 4
  %4 = load ptr, ptr @RecordCacheArray, align 8
  %5 = icmp eq ptr %4, null
  br i1 %5, label %6, label %9

6:                                                ; preds = %1
  %7 = load ptr, ptr @CacheMemoryContext, align 8
  %8 = call ptr @MemoryContextAllocZero(ptr noundef %7, i64 noundef 1024)
  store ptr %8, ptr @RecordCacheArray, align 8
  store i32 64, ptr @RecordCacheArrayLen, align 4
  br label %9

9:                                                ; preds = %6, %1
  %10 = load i32, ptr %2, align 4
  %11 = load i32, ptr @RecordCacheArrayLen, align 4
  %12 = icmp sge i32 %10, %11
  br i1 %12, label %13, label %26

13:                                               ; preds = %9
  call void @llvm.lifetime.start.p0(i64 4, ptr %3) #11
  %14 = load i32, ptr %2, align 4
  %15 = add i32 %14, 1
  %16 = call i32 @pg_nextpower2_32(i32 noundef %15)
  store i32 %16, ptr %3, align 4
  %17 = load ptr, ptr @RecordCacheArray, align 8
  %18 = load i32, ptr @RecordCacheArrayLen, align 4
  %19 = sext i32 %18 to i64
  %20 = mul i64 16, %19
  %21 = load i32, ptr %3, align 4
  %22 = sext i32 %21 to i64
  %23 = mul i64 16, %22
  %24 = call ptr @repalloc0(ptr noundef %17, i64 noundef %20, i64 noundef %23)
  store ptr %24, ptr @RecordCacheArray, align 8
  %25 = load i32, ptr %3, align 4
  store i32 %25, ptr @RecordCacheArrayLen, align 4
  call void @llvm.lifetime.end.p0(i64 4, ptr %3) #11
  br label %26

26:                                               ; preds = %13, %9
  ret void
}

; Function Attrs: nounwind uwtable
define internal ptr @lookup_rowtype_tupdesc_internal(i32 noundef %0, i32 noundef %1, i1 noundef zeroext %2) #0 {
  %4 = alloca ptr, align 8
  %5 = alloca i32, align 4
  %6 = alloca i32, align 4
  %7 = alloca i8, align 1
  %8 = alloca ptr, align 8
  %9 = alloca ptr, align 8
  %10 = alloca ptr, align 8
  %11 = alloca i32, align 4
  store i32 %0, ptr %5, align 4
  store i32 %1, ptr %6, align 4
  %12 = zext i1 %2 to i8
  store i8 %12, ptr %7, align 1
  %13 = load i32, ptr %5, align 4
  %14 = icmp ne i32 %13, 2249
  br i1 %14, label %15, label %43

15:                                               ; preds = %3
  call void @llvm.lifetime.start.p0(i64 8, ptr %8) #11
  %16 = load i32, ptr %5, align 4
  %17 = call ptr @lookup_type_cache(i32 noundef %16, i32 noundef 256)
  store ptr %17, ptr %8, align 8
  %18 = load ptr, ptr %8, align 8
  %19 = getelementptr inbounds nuw %struct.TypeCacheEntry, ptr %18, i32 0, i32 25
  %20 = load ptr, ptr %19, align 8
  %21 = icmp eq ptr %20, null
  br i1 %21, label %22, label %39

22:                                               ; preds = %15
  %23 = load i8, ptr %7, align 1, !range !4, !noundef !5
  %24 = trunc i8 %23 to i1
  br i1 %24, label %39, label %25

25:                                               ; preds = %22
  br label %26

26:                                               ; preds = %25
  br i1 true, label %27, label %29

27:                                               ; preds = %26
  %28 = call zeroext i1 @errstart_cold(i32 noundef 21, ptr noundef null) #12
  br i1 %28, label %31, label %36

29:                                               ; preds = %26
  %30 = call zeroext i1 @errstart(i32 noundef 21, ptr noundef null)
  br i1 %30, label %31, label %36

31:                                               ; preds = %29, %27
  %32 = call i32 @errcode(i32 noundef 151027844)
  %33 = load i32, ptr %5, align 4
  %34 = call ptr @format_type_be(i32 noundef %33)
  %35 = call i32 (ptr, ...) @errmsg(ptr noundef @.str.6, ptr noundef %34)
  call void @errfinish(ptr noundef @.str.3, i32 noundef 1840, ptr noundef @__func__.lookup_rowtype_tupdesc_internal)
  br label %36

36:                                               ; preds = %31, %29, %27
  unreachable

37:                                               ; No predecessors!
  br label %38

38:                                               ; preds = %37
  br label %39

39:                                               ; preds = %38, %22, %15
  %40 = load ptr, ptr %8, align 8
  %41 = getelementptr inbounds nuw %struct.TypeCacheEntry, ptr %40, i32 0, i32 25
  %42 = load ptr, ptr %41, align 8
  store ptr %42, ptr %4, align 8
  call void @llvm.lifetime.end.p0(i64 8, ptr %8) #11
  br label %129

43:                                               ; preds = %3
  %44 = load i32, ptr %6, align 4
  %45 = icmp sge i32 %44, 0
  br i1 %45, label %46, label %114

46:                                               ; preds = %43
  %47 = load i32, ptr %6, align 4
  %48 = load i32, ptr @RecordCacheArrayLen, align 4
  %49 = icmp slt i32 %47, %48
  br i1 %49, label %50, label %65

50:                                               ; preds = %46
  %51 = load ptr, ptr @RecordCacheArray, align 8
  %52 = load i32, ptr %6, align 4
  %53 = sext i32 %52 to i64
  %54 = getelementptr inbounds %struct.RecordCacheArrayEntry, ptr %51, i64 %53
  %55 = getelementptr inbounds nuw %struct.RecordCacheArrayEntry, ptr %54, i32 0, i32 1
  %56 = load ptr, ptr %55, align 8
  %57 = icmp ne ptr %56, null
  br i1 %57, label %58, label %65

58:                                               ; preds = %50
  %59 = load ptr, ptr @RecordCacheArray, align 8
  %60 = load i32, ptr %6, align 4
  %61 = sext i32 %60 to i64
  %62 = getelementptr inbounds %struct.RecordCacheArrayEntry, ptr %59, i64 %61
  %63 = getelementptr inbounds nuw %struct.RecordCacheArrayEntry, ptr %62, i32 0, i32 1
  %64 = load ptr, ptr %63, align 8
  store ptr %64, ptr %4, align 8
  br label %129

65:                                               ; preds = %50, %46
  %66 = load ptr, ptr @CurrentSession, align 8
  %67 = getelementptr inbounds nuw %struct.Session, ptr %66, i32 0, i32 2
  %68 = load ptr, ptr %67, align 8
  %69 = icmp ne ptr %68, null
  br i1 %69, label %70, label %113

70:                                               ; preds = %65
  call void @llvm.lifetime.start.p0(i64 8, ptr %9) #11
  %71 = load ptr, ptr @CurrentSession, align 8
  %72 = getelementptr inbounds nuw %struct.Session, ptr %71, i32 0, i32 4
  %73 = load ptr, ptr %72, align 8
  %74 = call ptr @dshash_find(ptr noundef %73, ptr noundef %6, i1 noundef zeroext false)
  store ptr %74, ptr %9, align 8
  %75 = load ptr, ptr %9, align 8
  %76 = icmp ne ptr %75, null
  br i1 %76, label %77, label %109

77:                                               ; preds = %70
  call void @llvm.lifetime.start.p0(i64 8, ptr %10) #11
  %78 = load ptr, ptr @CurrentSession, align 8
  %79 = getelementptr inbounds nuw %struct.Session, ptr %78, i32 0, i32 1
  %80 = load ptr, ptr %79, align 8
  %81 = load ptr, ptr %9, align 8
  %82 = getelementptr inbounds nuw %struct.SharedTypmodTableEntry, ptr %81, i32 0, i32 1
  %83 = load i64, ptr %82, align 8
  %84 = call ptr @dsa_get_address(ptr noundef %80, i64 noundef %83)
  store ptr %84, ptr %10, align 8
  %85 = load i32, ptr %6, align 4
  call void @ensure_record_cache_typmod_slot_exists(i32 noundef %85)
  %86 = load ptr, ptr %10, align 8
  %87 = load ptr, ptr @RecordCacheArray, align 8
  %88 = load i32, ptr %6, align 4
  %89 = sext i32 %88 to i64
  %90 = getelementptr inbounds %struct.RecordCacheArrayEntry, ptr %87, i64 %89
  %91 = getelementptr inbounds nuw %struct.RecordCacheArrayEntry, ptr %90, i32 0, i32 1
  store ptr %86, ptr %91, align 8
  %92 = load i64, ptr @tupledesc_id_counter, align 8
  %93 = add i64 %92, 1
  store i64 %93, ptr @tupledesc_id_counter, align 8
  %94 = load ptr, ptr @RecordCacheArray, align 8
  %95 = load i32, ptr %6, align 4
  %96 = sext i32 %95 to i64
  %97 = getelementptr inbounds %struct.RecordCacheArrayEntry, ptr %94, i64 %96
  %98 = getelementptr inbounds nuw %struct.RecordCacheArrayEntry, ptr %97, i32 0, i32 0
  store i64 %93, ptr %98, align 8
  %99 = load ptr, ptr @CurrentSession, align 8
  %100 = getelementptr inbounds nuw %struct.Session, ptr %99, i32 0, i32 4
  %101 = load ptr, ptr %100, align 8
  %102 = load ptr, ptr %9, align 8
  call void @dshash_release_lock(ptr noundef %101, ptr noundef %102)
  %103 = load ptr, ptr @RecordCacheArray, align 8
  %104 = load i32, ptr %6, align 4
  %105 = sext i32 %104 to i64
  %106 = getelementptr inbounds %struct.RecordCacheArrayEntry, ptr %103, i64 %105
  %107 = getelementptr inbounds nuw %struct.RecordCacheArrayEntry, ptr %106, i32 0, i32 1
  %108 = load ptr, ptr %107, align 8
  store ptr %108, ptr %4, align 8
  store i32 1, ptr %11, align 4
  call void @llvm.lifetime.end.p0(i64 8, ptr %10) #11
  br label %110

109:                                              ; preds = %70
  store i32 0, ptr %11, align 4
  br label %110

110:                                              ; preds = %109, %77
  call void @llvm.lifetime.end.p0(i64 8, ptr %9) #11
  %111 = load i32, ptr %11, align 4
  switch i32 %111, label %131 [
    i32 0, label %112
    i32 1, label %129
  ]

112:                                              ; preds = %110
  br label %113

113:                                              ; preds = %112, %65
  br label %114

114:                                              ; preds = %113, %43
  %115 = load i8, ptr %7, align 1, !range !4, !noundef !5
  %116 = trunc i8 %115 to i1
  br i1 %116, label %128, label %117

117:                                              ; preds = %114
  br label %118

118:                                              ; preds = %117
  br i1 true, label %119, label %121

119:                                              ; preds = %118
  %120 = call zeroext i1 @errstart_cold(i32 noundef 21, ptr noundef null) #12
  br i1 %120, label %123, label %126

121:                                              ; preds = %118
  %122 = call zeroext i1 @errstart(i32 noundef 21, ptr noundef null)
  br i1 %122, label %123, label %126

123:                                              ; preds = %121, %119
  %124 = call i32 @errcode(i32 noundef 151027844)
  %125 = call i32 (ptr, ...) @errmsg(ptr noundef @.str.20)
  call void @errfinish(ptr noundef @.str.3, i32 noundef 1899, ptr noundef @__func__.lookup_rowtype_tupdesc_internal)
  br label %126

126:                                              ; preds = %123, %121, %119
  unreachable

127:                                              ; No predecessors!
  br label %128

128:                                              ; preds = %127, %114
  store ptr null, ptr %4, align 8
  br label %129

129:                                              ; preds = %128, %110, %58, %39
  %130 = load ptr, ptr %4, align 8
  ret ptr %130

131:                                              ; preds = %110
  unreachable
}