; Function Attrs: nounwind uwtable
define internal fastcc ptr @lookup_rowtype_tupdesc_internal(i32 noundef %0, i32 noundef %1, i1 noundef zeroext %2) unnamed_addr #0 {
  %4 = alloca i32, align 4
  store i32 %1, ptr %4, align 4
  %.not = icmp eq i32 %0, 2249
  br i1 %.not, label %15, label %5

5:                                                ; preds = %3
  %6 = tail call ptr @lookup_type_cache(i32 noundef %0, i32 noundef 256)
  %7 = getelementptr inbounds nuw i8, ptr %6, i64 264
  %8 = load ptr, ptr %7, align 8
  %9 = icmp ne ptr %8, null
  %brmerge = or i1 %2, %9
  br i1 %brmerge, label %82, label %10

10:                                               ; preds = %5
  %11 = tail call zeroext i1 @errstart_cold(i32 noundef 21, ptr noundef null) #17
  tail call void @llvm.assume(i1 %11)
  %12 = tail call i32 @errcode(i32 noundef 151027844) #16
  %13 = tail call ptr @format_type_be(i32 noundef %0) #16
  %14 = tail call i32 (ptr, ...) @errmsg(ptr noundef nonnull @.str.6, ptr noundef %13) #16
  tail call void @errfinish(ptr noundef nonnull @.str.3, i32 noundef 1840, ptr noundef nonnull @__func__.lookup_rowtype_tupdesc_internal) #16
  unreachable

15:                                               ; preds = %3
  %16 = icmp sgt i32 %1, -1
  br i1 %16, label %17, label %77

17:                                               ; preds = %15
  %18 = load i32, ptr @RecordCacheArrayLen, align 4
  %19 = icmp slt i32 %1, %18
  br i1 %19, label %20, label %25

20:                                               ; preds = %17
  %21 = load ptr, ptr @RecordCacheArray, align 8
  %22 = zext nneg i32 %1 to i64
  %23 = getelementptr inbounds nuw %struct.RecordCacheArrayEntry, ptr %21, i64 %22, i32 1
  %24 = load ptr, ptr %23, align 8
  %.not17 = icmp eq ptr %24, null
  br i1 %.not17, label %25, label %82

25:                                               ; preds = %20, %17
  %26 = load ptr, ptr @CurrentSession, align 8
  %27 = getelementptr inbounds nuw i8, ptr %26, i64 16
  %28 = load ptr, ptr %27, align 8
  %.not18 = icmp eq ptr %28, null
  br i1 %.not18, label %77, label %29

29:                                               ; preds = %25
  %30 = getelementptr inbounds nuw i8, ptr %26, i64 32
  %31 = load ptr, ptr %30, align 8
  %32 = call ptr @dshash_find(ptr noundef %31, ptr noundef nonnull %4, i1 noundef zeroext false) #16
  %.not19.not = icmp eq ptr %32, null
  br i1 %.not19.not, label %76, label %33

33:                                               ; preds = %29
  %34 = load ptr, ptr @CurrentSession, align 8
  %35 = getelementptr inbounds nuw i8, ptr %34, i64 8
  %36 = load ptr, ptr %35, align 8
  %37 = getelementptr inbounds nuw i8, ptr %32, i64 8
  %38 = load i64, ptr %37, align 8
  %39 = call ptr @dsa_get_address(ptr noundef %36, i64 noundef %38) #16
  %40 = load i32, ptr %4, align 4
  %41 = load ptr, ptr @RecordCacheArray, align 8
  %42 = icmp eq ptr %41, null
  br i1 %42, label %43, label %._crit_edge.i

._crit_edge.i:                                    ; preds = %33
  %.pre.i = load i32, ptr @RecordCacheArrayLen, align 4
  br label %46

43:                                               ; preds = %33
  %44 = load ptr, ptr @CacheMemoryContext, align 8
  %45 = call ptr @MemoryContextAllocZero(ptr noundef %44, i64 noundef 1024) #16
  store ptr %45, ptr @RecordCacheArray, align 8
  store i32 64, ptr @RecordCacheArrayLen, align 4
  br label %46

46:                                               ; preds = %43, %._crit_edge.i
  %47 = phi ptr [ %41, %._crit_edge.i ], [ %45, %43 ]
  %48 = phi i32 [ %.pre.i, %._crit_edge.i ], [ 64, %43 ]
  %.not.i = icmp slt i32 %40, %48
  br i1 %.not.i, label %.thread, label %49

49:                                               ; preds = %46
  %50 = add i32 %40, 1
  %51 = call range(i32 0, 33) i32 @llvm.ctpop.i32(i32 %50)
  %52 = icmp samesign ult i32 %51, 2
  %53 = call range(i32 0, 33) i32 @llvm.ctlz.i32(i32 %50, i1 true)
  %54 = xor i32 %53, 31
  %55 = shl nuw i32 2, %54
  %.0.i.i = select i1 %52, i32 %50, i32 %55
  %56 = sext i32 %48 to i64
  %57 = shl nsw i64 %56, 4
  %58 = sext i32 %.0.i.i to i64
  %59 = shl nsw i64 %58, 4
  %60 = call ptr @repalloc0(ptr noundef %47, i64 noundef %57, i64 noundef %59) #16
  store ptr %60, ptr @RecordCacheArray, align 8
  store i32 %.0.i.i, ptr @RecordCacheArrayLen, align 4
  br label %.thread

.thread:                                          ; preds = %49, %46
  %61 = phi ptr [ %60, %49 ], [ %47, %46 ]
  %62 = load i32, ptr %4, align 4
  %63 = sext i32 %62 to i64
  %64 = getelementptr inbounds %struct.RecordCacheArrayEntry, ptr %61, i64 %63, i32 1
  store ptr %39, ptr %64, align 8
  %65 = load i64, ptr @tupledesc_id_counter, align 8
  %66 = add i64 %65, 1
  store i64 %66, ptr @tupledesc_id_counter, align 8
  %67 = getelementptr inbounds %struct.RecordCacheArrayEntry, ptr %61, i64 %63
  store i64 %66, ptr %67, align 8
  %68 = load ptr, ptr @CurrentSession, align 8
  %69 = getelementptr inbounds nuw i8, ptr %68, i64 32
  %70 = load ptr, ptr %69, align 8
  call void @dshash_release_lock(ptr noundef %70, ptr noundef nonnull %32) #16
  %71 = load ptr, ptr @RecordCacheArray, align 8
  %72 = load i32, ptr %4, align 4
  %73 = sext i32 %72 to i64
  %74 = getelementptr inbounds %struct.RecordCacheArrayEntry, ptr %71, i64 %73, i32 1
  %75 = load ptr, ptr %74, align 8
  br label %82

76:                                               ; preds = %29
  br i1 %2, label %82, label %78

77:                                               ; preds = %25, %15
  br i1 %2, label %82, label %78

78:                                               ; preds = %76, %77
  %79 = call zeroext i1 @errstart_cold(i32 noundef 21, ptr noundef null) #17
  call void @llvm.assume(i1 %79)
  %80 = call i32 @errcode(i32 noundef 151027844) #16
  %81 = call i32 (ptr, ...) @errmsg(ptr noundef nonnull @.str.20) #16
  call void @errfinish(ptr noundef nonnull @.str.3, i32 noundef 1899, ptr noundef nonnull @__func__.lookup_rowtype_tupdesc_internal) #16
  unreachable

82:                                               ; preds = %.thread, %5, %76, %77, %20
  %.012 = phi ptr [ null, %76 ], [ %24, %20 ], [ null, %77 ], [ %8, %5 ], [ %75, %.thread ]
  ret ptr %.012
}